target datalayout = "e-m:e-p270:32:32-p271:32:32-p272:64:64-i64:64-i128:128-f80:128-n8:16:32:64-S128"
target triple = "x86_64-pc-linux-gnu"

%struct.ssl_st = type { i32, i16, i16, ptr, ptr, ptr, ptr, ptr, i32, i32, ptr, ptr, i32, i32, ptr, ptr, ptr, ptr, ptr, ptr, ptr, ptr, i32, i32, [32 x i8], ptr, ptr, ptr, ptr, ptr, ptr, ptr, i64, %struct.crypto_ex_data_st, ptr, i32, i32, i32, i32, i16, ptr, i32, i64, ptr, ptr, ptr, ptr, ptr, ptr, i32, i32, ptr, ptr, i8, i8, i32 }
%struct.crypto_ex_data_st = type { ptr }
%struct.ssl_session_st = type { i32, i32, i32, i32, [48 x i8], i32, [32 x i8], i32, [32 x i8], ptr, ptr, ptr, i64, i64, i64, ptr, %struct.crypto_ex_data_st, ptr, ptr, ptr, ptr, i64, i64, ptr, i64, ptr, [32 x i8], [64 x i8], i32, i32, i8 }

; Function Attrs: nounwind uwtable
define internal i32 @ext_sni_parse_serverhello(ptr noundef %0, ptr noundef %1, ptr noundef %2) #0 {
  %4 = alloca i32, align 4
  %5 = alloca ptr, align 8
  %6 = alloca ptr, align 8
  %7 = alloca ptr, align 8
  store ptr %0, ptr %5, align 8, !tbaa !69
  store ptr %1, ptr %6, align 8, !tbaa !55
  store ptr %2, ptr %7, align 8, !tbaa !52
  %8 = load ptr, ptr %7, align 8, !tbaa !52
  %9 = icmp eq ptr %8, null
  br i1 %9, label %10, label %11

10:                                               ; preds = %3
  store i32 1, ptr %4, align 4
  br label %42

11:                                               ; preds = %3
  %12 = load ptr, ptr %7, align 8, !tbaa !52
  %13 = call i64 @CBS_len(ptr noundef %12)
  %14 = icmp ne i64 %13, 0
  br i1 %14, label %15, label %16

15:                                               ; preds = %11
  store i32 0, ptr %4, align 4
  br label %42

16:                                               ; preds = %11
  %17 = load ptr, ptr %5, align 8, !tbaa !69
  %18 = getelementptr inbounds nuw %struct.ssl_st, ptr %17, i32 0, i32 54
  %19 = load i8, ptr %18, align 1
  %20 = and i8 %19, 1
  %21 = zext i8 %20 to i32
  %22 = icmp ne i32 %21, 0
  br i1 %22, label %41, label %23

23:                                               ; preds = %16
  %24 = load ptr, ptr %5, align 8, !tbaa !69
  %25 = getelementptr inbounds nuw %struct.ssl_st, ptr %24, i32 0, i32 40
  %26 = load ptr, ptr %25, align 8, !tbaa !183
  %27 = call ptr @BUF_strdup(ptr noundef %26)
  %28 = load ptr, ptr %5, align 8, !tbaa !69
  %29 = getelementptr inbounds nuw %struct.ssl_st, ptr %28, i32 0, i32 25
  %30 = load ptr, ptr %29, align 8, !tbaa !178
  %31 = getelementptr inbounds nuw %struct.ssl_session_st, ptr %30, i32 0, i32 19
  store ptr %27, ptr %31, align 8, !tbaa !184
  %32 = load ptr, ptr %5, align 8, !tbaa !69
  %33 = getelementptr inbounds nuw %struct.ssl_st, ptr %32, i32 0, i32 25
  %34 = load ptr, ptr %33, align 8, !tbaa !178
  %35 = getelementptr inbounds nuw %struct.ssl_session_st, ptr %34, i32 0, i32 19
  %36 = load ptr, ptr %35, align 8, !tbaa !184
  %37 = icmp ne ptr %36, null
  br i1 %37, label %40, label %38

38:                                               ; preds = %23
  %39 = load ptr, ptr %6, align 8, !tbaa !55
  store i8 80, ptr %39, align 1, !tbaa !103
  store i32 0, ptr %4, align 4
  br label %42

40:                                               ; preds = %23
  br label %41

41:                                               ; preds = %40, %16
  store i32 1, ptr %4, align 4
  br label %42

42:                                               ; preds = %41, %38, %15, %10
  %43 = load i32, ptr %4, align 4
  ret i32 %43
}