; Function Attrs: nounwind uwtable
define internal range(i32 0, 2) i32 @ext_sni_parse_serverhello(ptr noundef readonly captures(none) %0, ptr noundef writeonly captures(none) %1, ptr noundef %2) #0 {
  %4 = icmp eq ptr %2, null
  br i1 %4, label %19, label %5

5:                                                ; preds = %3
  %6 = tail call i64 @CBS_len(ptr noundef nonnull %2) #21
  %.not = icmp eq i64 %6, 0
  br i1 %.not, label %7, label %19

7:                                                ; preds = %5
  %8 = getelementptr inbounds nuw i8, ptr %0, i64 385
  %9 = load i8, ptr %8, align 1
  %10 = and i8 %9, 1
  %.not8 = icmp eq i8 %10, 0
  br i1 %.not8, label %11, label %19

11:                                               ; preds = %7
  %12 = getelementptr inbounds nuw i8, ptr %0, i64 288
  %13 = load ptr, ptr %12, align 8, !tbaa !152
  %14 = tail call ptr @BUF_strdup(ptr noundef %13) #21
  %15 = getelementptr inbounds nuw i8, ptr %0, i64 184
  %16 = load ptr, ptr %15, align 8, !tbaa !147
  %17 = getelementptr inbounds nuw i8, ptr %16, i64 216
  store ptr %14, ptr %17, align 8, !tbaa !153
  %.not9 = icmp eq ptr %14, null
  br i1 %.not9, label %18, label %19

18:                                               ; preds = %11
  store i8 80, ptr %1, align 1, !tbaa !90
  br label %19

19:                                               ; preds = %7, %11, %5, %3, %18
  %.0 = phi i32 [ 0, %18 ], [ 1, %3 ], [ 0, %5 ], [ 1, %11 ], [ 1, %7 ]
  ret i32 %.0
}